target datalayout = "e-m:e-p270:32:32-p271:32:32-p272:64:64-i64:64-i128:128-f80:128-n8:16:32:64-S128"
target triple = "x86_64-unknown-linux-gnu"

%class.btSimpleBroadphase = type { %class.btBroadphaseInterface, i32, i32, i32, ptr, ptr, i32, ptr, i8, i32 }
%class.btBroadphaseInterface = type { ptr }
%struct.btSimpleBroadphaseProxy = type { %struct.btBroadphaseProxy.base, i32 }
%struct.btBroadphaseProxy.base = type <{ ptr, i32, i32, i32, %class.btVector3, %class.btVector3 }>
%class.btVector3 = type { [4 x float] }
%struct.btBroadphaseProxy = type <{ ptr, i32, i32, i32, %class.btVector3, %class.btVector3, [4 x i8] }>

; Function Attrs: mustprogress nounwind uwtable
define linkonce_odr dso_local void @_ZN23btSimpleBroadphaseProxy11SetNextFreeEi(ptr noundef nonnull align 8 dereferenceable(56) %this, i32 noundef %next) #1 comdat align 2 {
entry:
  %this.addr = alloca ptr, align 8
  %next.addr = alloca i32, align 4
  store ptr %this, ptr %this.addr, align 8
  store i32 %next, ptr %next.addr, align 4
  %this1 = load ptr, ptr %this.addr, align 8
  %0 = load i32, ptr %next.addr, align 4
  %m_nextFree = getelementptr inbounds %struct.btSimpleBroadphaseProxy, ptr %this1, i32 0, i32 1
  store i32 %0, ptr %m_nextFree, align 4
  ret void
}

; Function Attrs: mustprogress nounwind uwtable
define linkonce_odr dso_local void @_ZN18btSimpleBroadphase10freeHandleEP23btSimpleBroadphaseProxy(ptr noundef nonnull align 8 dereferenceable(64) %this, ptr noundef %proxy) #1 comdat align 2 {
entry:
  %this.addr = alloca ptr, align 8
  %proxy.addr = alloca ptr, align 8
  %handle = alloca i32, align 4
  store ptr %this, ptr %this.addr, align 8
  store ptr %proxy, ptr %proxy.addr, align 8
  %this1 = load ptr, ptr %this.addr, align 8
  %0 = load ptr, ptr %proxy.addr, align 8
  %m_pHandles = getelementptr inbounds %class.btSimpleBroadphase, ptr %this1, i32 0, i32 4
  %1 = load ptr, ptr %m_pHandles, align 8
  %sub.ptr.lhs.cast = ptrtoint ptr %0 to i64
  %sub.ptr.rhs.cast = ptrtoint ptr %1 to i64
  %sub.ptr.sub = sub i64 %sub.ptr.lhs.cast, %sub.ptr.rhs.cast
  %sub.ptr.div = sdiv exact i64 %sub.ptr.sub, 56
  %conv = trunc i64 %sub.ptr.div to i32
  store i32 %conv, ptr %handle, align 4
  %2 = load i32, ptr %handle, align 4
  %m_LastHandleIndex = getelementptr inbounds %class.btSimpleBroadphase, ptr %this1, i32 0, i32 3
  %3 = load i32, ptr %m_LastHandleIndex, align 8
  %cmp = icmp eq i32 %2, %3
  br i1 %cmp, label %if.then, label %if.end

if.then:                                          ; preds = %entry
  %m_LastHandleIndex2 = getelementptr inbounds %class.btSimpleBroadphase, ptr %this1, i32 0, i32 3
  %4 = load i32, ptr %m_LastHandleIndex2, align 8
  %dec = add nsw i32 %4, -1
  store i32 %dec, ptr %m_LastHandleIndex2, align 8
  br label %if.end

if.end:                                           ; preds = %if.then, %entry
  %5 = load ptr, ptr %proxy.addr, align 8
  %m_firstFreeHandle = getelementptr inbounds %class.btSimpleBroadphase, ptr %this1, i32 0, i32 6
  %6 = load i32, ptr %m_firstFreeHandle, align 8
  call void @_ZN23btSimpleBroadphaseProxy11SetNextFreeEi(ptr noundef nonnull align 8 dereferenceable(56) %5, i32 noundef %6)
  %7 = load i32, ptr %handle, align 4
  %m_firstFreeHandle3 = getelementptr inbounds %class.btSimpleBroadphase, ptr %this1, i32 0, i32 6
  store i32 %7, ptr %m_firstFreeHandle3, align 8
  %8 = load ptr, ptr %proxy.addr, align 8
  %m_clientObject = getelementptr inbounds %struct.btBroadphaseProxy, ptr %8, i32 0, i32 0
  store ptr null, ptr %m_clientObject, align 8
  %m_numHandles = getelementptr inbounds %class.btSimpleBroadphase, ptr %this1, i32 0, i32 1
  %9 = load i32, ptr %m_numHandles, align 8
  %dec4 = add nsw i32 %9, -1
  store i32 %dec4, ptr %m_numHandles, align 8
  ret void
}

; Function Attrs: mustprogress uwtable
define dso_local void @_ZN18btSimpleBroadphase12destroyProxyEP17btBroadphaseProxyP12btDispatcher(ptr noundef nonnull align 8 dereferenceable(64) %this, ptr noundef %proxyOrg, ptr noundef %dispatcher) unnamed_addr #2 align 2 {
entry:
  %this.addr = alloca ptr, align 8
  %proxyOrg.addr = alloca ptr, align 8
  %dispatcher.addr = alloca ptr, align 8
  %proxy0 = alloca ptr, align 8
  store ptr %this, ptr %this.addr, align 8
  store ptr %proxyOrg, ptr %proxyOrg.addr, align 8
  store ptr %dispatcher, ptr %dispatcher.addr, align 8
  %this1 = load ptr, ptr %this.addr, align 8
  %m_pairCache = getelementptr inbounds %class.btSimpleBroadphase, ptr %this1, i32 0, i32 7
  %0 = load ptr, ptr %m_pairCache, align 8
  %1 = load ptr, ptr %proxyOrg.addr, align 8
  %2 = load ptr, ptr %dispatcher.addr, align 8
  %vtable = load ptr, ptr %0, align 8
  %vfn = getelementptr inbounds ptr, ptr %vtable, i64 4
  %3 = load ptr, ptr %vfn, align 8
  call void %3(ptr noundef nonnull align 8 dereferenceable(8) %0, ptr noundef %1, ptr noundef %2)
  %4 = load ptr, ptr %proxyOrg.addr, align 8
  store ptr %4, ptr %proxy0, align 8
  %5 = load ptr, ptr %proxy0, align 8
  call void @_ZN18btSimpleBroadphase10freeHandleEP23btSimpleBroadphaseProxy(ptr noundef nonnull align 8 dereferenceable(64) %this1, ptr noundef %5)
  ret void
}