; Function Attrs: mustprogress uwtable
define dso_local void @_ZN18btSimpleBroadphase12destroyProxyEP17btBroadphaseProxyP12btDispatcher(ptr nocapture noundef nonnull align 8 dereferenceable(64) %this, ptr noundef %proxyOrg, ptr noundef %dispatcher) unnamed_addr #1 align 2 {
entry:
  %m_pairCache = getelementptr inbounds i8, ptr %this, i64 48
  %0 = load ptr, ptr %m_pairCache, align 8
  %vtable = load ptr, ptr %0, align 8
  %vfn = getelementptr inbounds i8, ptr %vtable, i64 32
  %1 = load ptr, ptr %vfn, align 8
  tail call void %1(ptr noundef nonnull align 8 dereferenceable(8) %0, ptr noundef %proxyOrg, ptr noundef %dispatcher)
  %m_pHandles.i = getelementptr inbounds i8, ptr %this, i64 24
  %2 = load ptr, ptr %m_pHandles.i, align 8
  %sub.ptr.lhs.cast.i = ptrtoint ptr %proxyOrg to i64
  %sub.ptr.rhs.cast.i = ptrtoint ptr %2 to i64
  %sub.ptr.sub.i = sub i64 %sub.ptr.lhs.cast.i, %sub.ptr.rhs.cast.i
  %sub.ptr.div.i = sdiv exact i64 %sub.ptr.sub.i, 56
  %conv.i = trunc i64 %sub.ptr.div.i to i32
  %m_LastHandleIndex.i = getelementptr inbounds i8, ptr %this, i64 16
  %3 = load i32, ptr %m_LastHandleIndex.i, align 8
  %cmp.i = icmp eq i32 %3, %conv.i
  br i1 %cmp.i, label %if.then.i, label %_ZN18btSimpleBroadphase10freeHandleEP23btSimpleBroadphaseProxy.exit

if.then.i:                                        ; preds = %entry
  %dec.i = add nsw i32 %conv.i, -1
  store i32 %dec.i, ptr %m_LastHandleIndex.i, align 8
  br label %_ZN18btSimpleBroadphase10freeHandleEP23btSimpleBroadphaseProxy.exit

_ZN18btSimpleBroadphase10freeHandleEP23btSimpleBroadphaseProxy.exit: ; preds = %entry, %if.then.i
  %m_firstFreeHandle.i = getelementptr inbounds i8, ptr %this, i64 40
  %4 = load i32, ptr %m_firstFreeHandle.i, align 8
  %m_nextFree.i.i = getelementptr inbounds i8, ptr %proxyOrg, i64 52
  store i32 %4, ptr %m_nextFree.i.i, align 4
  store i32 %conv.i, ptr %m_firstFreeHandle.i, align 8
  store ptr null, ptr %proxyOrg, align 8
  %m_numHandles.i = getelementptr inbounds i8, ptr %this, i64 8
  %5 = load i32, ptr %m_numHandles.i, align 8
  %dec4.i = add nsw i32 %5, -1
  store i32 %dec4.i, ptr %m_numHandles.i, align 8
  ret void
}